target datalayout = "e-m:e-p270:32:32-p271:32:32-p272:64:64-i64:64-i128:128-f80:128-n8:16:32:64-S128"
target triple = "x86_64-pc-linux-gnu"

%"class.glslang::TIntermTyped" = type { %class.TIntermNode, %"class.glslang::TType" }
%class.TIntermNode = type { ptr, %"struct.glslang::TSourceLoc" }
%"struct.glslang::TSourceLoc" = type { ptr, i32, i32, i32 }
%"class.glslang::TType" = type { ptr, i32, [4 x i8], %"class.glslang::TQualifier", ptr, %union.anon, ptr, ptr, %"struct.glslang::TSampler", ptr, ptr }
%"class.glslang::TQualifier" = type <{ ptr, i64, i8, [3 x i8], i32, i32, i64, i64, i8, i8, i8, i8, i8, [3 x i8], i32, i8, i8, i8, i8, i32, ptr, i8, i8, [6 x i8] }>
%union.anon = type { ptr }
%"struct.glslang::TSampler" = type { i32 }
%"class.glslang::TIntermOperator" = type { %"class.glslang::TIntermTyped", i32, i32 }
%"class.std::function" = type { %"class.std::_Function_base", ptr }
%"class.std::_Function_base" = type { %"union.std::_Any_data", ptr }
%"union.std::_Any_data" = type { %"union.std::_Nocopy_types" }
%"union.std::_Nocopy_types" = type { { i64, i64 } }

; Function Attrs: mustprogress nounwind uwtable
define linkonce_odr noundef zeroext i1 @_ZNK7glslang5TType11isReferenceEv(ptr noundef nonnull align 8 dereferenceable(152) %0) #0 comdat align 2 {
  %2 = alloca ptr, align 8
  store ptr %0, ptr %2, align 8
  %3 = load ptr, ptr %2, align 8
  %4 = load ptr, ptr %3, align 8
  %5 = getelementptr inbounds ptr, ptr %4, i64 7
  %6 = load ptr, ptr %5, align 8
  %7 = call noundef i32 %6(ptr noundef nonnull align 8 dereferenceable(152) %3)
  %8 = icmp eq i32 %7, 18
  ret i1 %8
}

; Function Attrs: mustprogress nounwind uwtable
define linkonce_odr noundef zeroext i1 @_ZNKSt14_Function_base8_M_emptyEv(ptr noundef nonnull align 8 dereferenceable(24) %0) #0 comdat align 2 {
  %2 = alloca ptr, align 8
  store ptr %0, ptr %2, align 8
  %3 = load ptr, ptr %2, align 8
  %4 = getelementptr inbounds %"class.std::_Function_base", ptr %3, i32 0, i32 1
  %5 = load ptr, ptr %4, align 8
  %6 = icmp ne ptr %5, null
  %7 = xor i1 %6, true
  ret i1 %7
}

; Function Attrs: mustprogress nounwind uwtable
define linkonce_odr noundef zeroext i1 @_ZNK7glslang12TIntermTyped11isReferenceEv(ptr noundef nonnull align 8 dereferenceable(184) %0) #0 comdat align 2 {
  %2 = alloca ptr, align 8
  store ptr %0, ptr %2, align 8
  %3 = load ptr, ptr %2, align 8
  %4 = getelementptr inbounds %"class.glslang::TIntermTyped", ptr %3, i32 0, i32 1
  %5 = call noundef zeroext i1 @_ZNK7glslang5TType11isReferenceEv(ptr noundef nonnull align 8 dereferenceable(152) %4)
  ret i1 %5
}

; Function Attrs: mustprogress nounwind uwtable
define linkonce_odr noundef i32 @_ZNK7glslang15TIntermOperator5getOpEv(ptr noundef nonnull align 8 dereferenceable(192) %0) #0 comdat align 2 {
  %2 = alloca ptr, align 8
  store ptr %0, ptr %2, align 8
  %3 = load ptr, ptr %2, align 8
  %4 = getelementptr inbounds %"class.glslang::TIntermOperator", ptr %3, i32 0, i32 1
  %5 = load i32, ptr %4, align 8
  ret i32 %5
}

; Function Attrs: mustprogress nounwind uwtable
define linkonce_odr noundef zeroext i1 @_ZNKSt8functionIFbRK11TIntermNodeEEclES2_(ptr noundef nonnull align 8 dereferenceable(32) %0, ptr noundef nonnull align 8 dereferenceable(32) %1) #0 comdat align 2 {
  %3 = alloca ptr, align 8
  %4 = alloca ptr, align 8
  store ptr %0, ptr %3, align 8
  store ptr %1, ptr %4, align 8
  %5 = load ptr, ptr %3, align 8
  %6 = call noundef zeroext i1 @_ZNKSt14_Function_base8_M_emptyEv(ptr noundef nonnull align 8 dereferenceable(24) %5)
  br i1 %6, label %7, label %8

7:                                                ; preds = %2
  call void @_ZSt25__throw_bad_function_callv() #11
  unreachable

8:                                                ; preds = %2
  %9 = getelementptr inbounds %"class.std::function", ptr %5, i32 0, i32 1
  %10 = load ptr, ptr %9, align 8
  %11 = getelementptr inbounds %"class.std::_Function_base", ptr %5, i32 0, i32 0
  %12 = load ptr, ptr %4, align 8
  %13 = call noundef zeroext i1 %10(ptr noundef nonnull align 8 dereferenceable(16) %11, ptr noundef nonnull align 8 dereferenceable(32) %12)
  ret i1 %13
}

; Function Attrs: mustprogress nounwind uwtable
define linkonce_odr noundef zeroext i1 @_ZNKSt8functionIFbRK11TIntermNodeEEcvbEv(ptr noundef nonnull align 8 dereferenceable(32) %0) #0 comdat align 2 {
  %2 = alloca ptr, align 8
  store ptr %0, ptr %2, align 8
  %3 = load ptr, ptr %2, align 8
  %4 = call noundef zeroext i1 @_ZNKSt14_Function_base8_M_emptyEv(ptr noundef nonnull align 8 dereferenceable(24) %3)
  %5 = xor i1 %4, true
  ret i1 %5
}

; Function Attrs: mustprogress nounwind uwtable
define noundef ptr @_ZN7glslang13TIntermediate18traverseLValueBaseEPKNS_12TIntermTypedEbbSt8functionIFbRK11TIntermNodeEE(ptr noundef %0, i1 noundef zeroext %1, i1 noundef zeroext %2, ptr noundef %3) #0 align 2 {
  %5 = alloca ptr, align 8
  %6 = alloca ptr, align 8
  %7 = alloca i8, align 1
  %8 = alloca i8, align 1
  %9 = alloca ptr, align 8
  %10 = alloca ptr, align 8
  %11 = alloca i32, align 4
  store ptr %0, ptr %6, align 8
  %12 = zext i1 %1 to i8
  store i8 %12, ptr %7, align 1
  %13 = zext i1 %2 to i8
  store i8 %13, ptr %8, align 1
  store ptr %3, ptr %9, align 8
  br label %14

14:                                               ; preds = %129, %4
  %15 = load ptr, ptr %6, align 8
  %16 = load ptr, ptr %15, align 8
  %17 = getelementptr inbounds ptr, ptr %16, i64 20
  %18 = load ptr, ptr %17, align 8
  %19 = call noundef ptr %18(ptr noundef nonnull align 8 dereferenceable(32) %15)
  store ptr %19, ptr %10, align 8
  %20 = load ptr, ptr %10, align 8
  %21 = icmp eq ptr %20, null
  br i1 %21, label %22, label %29

22:                                               ; preds = %14
  %23 = call noundef zeroext i1 @_ZNKSt8functionIFbRK11TIntermNodeEEcvbEv(ptr noundef nonnull align 8 dereferenceable(32) %3) #10
  br i1 %23, label %24, label %27

24:                                               ; preds = %22
  %25 = load ptr, ptr %6, align 8
  %26 = call noundef zeroext i1 @_ZNKSt8functionIFbRK11TIntermNodeEEclES2_(ptr noundef nonnull align 8 dereferenceable(32) %3, ptr noundef nonnull align 8 dereferenceable(32) %25)
  br label %27

27:                                               ; preds = %24, %22
  %28 = load ptr, ptr %6, align 8
  store ptr %28, ptr %5, align 8
  br label %131

29:                                               ; preds = %14
  %30 = load ptr, ptr %10, align 8
  %31 = call noundef i32 @_ZNK7glslang15TIntermOperator5getOpEv(ptr noundef nonnull align 8 dereferenceable(192) %30)
  store i32 %31, ptr %11, align 4
  %32 = load i32, ptr %11, align 4
  %33 = icmp ne i32 %32, 182
  br i1 %33, label %34, label %47

34:                                               ; preds = %29
  %35 = load i32, ptr %11, align 4
  %36 = icmp ne i32 %35, 183
  br i1 %36, label %37, label %47

37:                                               ; preds = %34
  %38 = load i32, ptr %11, align 4
  %39 = icmp ne i32 %38, 184
  br i1 %39, label %40, label %47

40:                                               ; preds = %37
  %41 = load i32, ptr %11, align 4
  %42 = icmp ne i32 %41, 185
  br i1 %42, label %43, label %47

43:                                               ; preds = %40
  %44 = load i32, ptr %11, align 4
  %45 = icmp ne i32 %44, 833
  br i1 %45, label %46, label %47

46:                                               ; preds = %43
  store ptr null, ptr %5, align 8
  br label %131

47:                                               ; preds = %43, %40, %37, %34, %29
  %48 = load i8, ptr %7, align 1
  %49 = trunc i8 %48 to i1
  br i1 %49, label %107, label %50

50:                                               ; preds = %47
  %51 = load i32, ptr %11, align 4
  %52 = icmp eq i32 %51, 185
  br i1 %52, label %56, label %53

53:                                               ; preds = %50
  %54 = load i32, ptr %11, align 4
  %55 = icmp eq i32 %54, 833
  br i1 %55, label %56, label %57

56:                                               ; preds = %53, %50
  store ptr null, ptr %5, align 8
  br label %131

57:                                               ; preds = %53
  %58 = load i32, ptr %11, align 4
  %59 = icmp eq i32 %58, 182
  br i1 %59, label %63, label %60

60:                                               ; preds = %57
  %61 = load i32, ptr %11, align 4
  %62 = icmp eq i32 %61, 183
  br i1 %62, label %63, label %106

63:                                               ; preds = %60, %57
  %64 = load ptr, ptr %10, align 8
  %65 = load ptr, ptr %64, align 8
  %66 = getelementptr inbounds ptr, ptr %65, i64 50
  %67 = load ptr, ptr %66, align 8
  %68 = call noundef ptr %67(ptr noundef nonnull align 8 dereferenceable(208) %64)
  %69 = load ptr, ptr %68, align 8
  %70 = getelementptr inbounds ptr, ptr %69, i64 30
  %71 = load ptr, ptr %70, align 8
  %72 = call noundef nonnull align 8 dereferenceable(152) ptr %71(ptr noundef nonnull align 8 dereferenceable(184) %68)
  %73 = load ptr, ptr %72, align 8
  %74 = getelementptr inbounds ptr, ptr %73, i64 27
  %75 = load ptr, ptr %74, align 8
  %76 = call noundef zeroext i1 %75(ptr noundef nonnull align 8 dereferenceable(152) %72)
  br i1 %76, label %91, label %77

77:                                               ; preds = %63
  %78 = load ptr, ptr %10, align 8
  %79 = load ptr, ptr %78, align 8
  %80 = getelementptr inbounds ptr, ptr %79, i64 50
  %81 = load ptr, ptr %80, align 8
  %82 = call noundef ptr %81(ptr noundef nonnull align 8 dereferenceable(208) %78)
  %83 = load ptr, ptr %82, align 8
  %84 = getelementptr inbounds ptr, ptr %83, i64 30
  %85 = load ptr, ptr %84, align 8
  %86 = call noundef nonnull align 8 dereferenceable(152) ptr %85(ptr noundef nonnull align 8 dereferenceable(184) %82)
  %87 = load ptr, ptr %86, align 8
  %88 = getelementptr inbounds ptr, ptr %87, i64 24
  %89 = load ptr, ptr %88, align 8
  %90 = call noundef zeroext i1 %89(ptr noundef nonnull align 8 dereferenceable(152) %86)
  br i1 %90, label %91, label %106

91:                                               ; preds = %77, %63
  %92 = load ptr, ptr %10, align 8
  %93 = load ptr, ptr %92, align 8
  %94 = getelementptr inbounds ptr, ptr %93, i64 50
  %95 = load ptr, ptr %94, align 8
  %96 = call noundef ptr %95(ptr noundef nonnull align 8 dereferenceable(208) %92)
  %97 = load ptr, ptr %96, align 8
  %98 = getelementptr inbounds ptr, ptr %97, i64 30
  %99 = load ptr, ptr %98, align 8
  %100 = call noundef nonnull align 8 dereferenceable(152) ptr %99(ptr noundef nonnull align 8 dereferenceable(184) %96)
  %101 = load ptr, ptr %100, align 8
  %102 = getelementptr inbounds ptr, ptr %101, i64 29
  %103 = load ptr, ptr %102, align 8
  %104 = call noundef zeroext i1 %103(ptr noundef nonnull align 8 dereferenceable(152) %100)
  br i1 %104, label %106, label %105

105:                                              ; preds = %91
  store ptr null, ptr %5, align 8
  br label %131

106:                                              ; preds = %91, %77, %60
  br label %107

107:                                              ; preds = %106, %47
  %108 = call noundef zeroext i1 @_ZNKSt8functionIFbRK11TIntermNodeEEcvbEv(ptr noundef nonnull align 8 dereferenceable(32) %3) #10
  br i1 %108, label %109, label %115

109:                                              ; preds = %107
  %110 = load ptr, ptr %6, align 8
  %111 = call noundef zeroext i1 @_ZNKSt8functionIFbRK11TIntermNodeEEclES2_(ptr noundef nonnull align 8 dereferenceable(32) %3, ptr noundef nonnull align 8 dereferenceable(32) %110)
  br i1 %111, label %114, label %112

112:                                              ; preds = %109
  %113 = load ptr, ptr %6, align 8
  store ptr %113, ptr %5, align 8
  br label %131

114:                                              ; preds = %109
  br label %115

115:                                              ; preds = %114, %107
  %116 = load ptr, ptr %10, align 8
  %117 = load ptr, ptr %116, align 8
  %118 = getelementptr inbounds ptr, ptr %117, i64 50
  %119 = load ptr, ptr %118, align 8
  %120 = call noundef ptr %119(ptr noundef nonnull align 8 dereferenceable(208) %116)
  store ptr %120, ptr %6, align 8
  %121 = load i8, ptr %8, align 1
  %122 = trunc i8 %121 to i1
  br i1 %122, label %123, label %128

123:                                              ; preds = %115
  %124 = load ptr, ptr %6, align 8
  %125 = call noundef zeroext i1 @_ZNK7glslang12TIntermTyped11isReferenceEv(ptr noundef nonnull align 8 dereferenceable(184) %124)
  br i1 %125, label %126, label %128

126:                                              ; preds = %123
  %127 = load ptr, ptr %6, align 8
  store ptr %127, ptr %5, align 8
  br label %131

128:                                              ; preds = %123, %115
  br label %129

129:                                              ; preds = %128
  br i1 true, label %14, label %130, !llvm.loop !8

130:                                              ; preds = %129
  call void @llvm.trap()
  unreachable

131:                                              ; preds = %126, %112, %105, %56, %46, %27
  %132 = load ptr, ptr %5, align 8
  ret ptr %132
}