; Function Attrs: mustprogress nounwind uwtable
define noundef ptr @_ZN7glslang13TIntermediate18traverseLValueBaseEPKNS_12TIntermTypedEbbSt8functionIFbRK11TIntermNodeEE(ptr noundef %0, i1 noundef zeroext %1, i1 noundef zeroext %2, ptr noundef %3) local_unnamed_addr #0 align 2 {
  %5 = load ptr, ptr %0, align 8
  %6 = getelementptr inbounds i8, ptr %5, i64 160
  %7 = load ptr, ptr %6, align 8
  %8 = tail call noundef ptr %7(ptr noundef nonnull align 8 dereferenceable(32) %0) #17
  %9 = icmp eq ptr %8, null
  br i1 %9, label %._crit_edge, label %.lr.ph

.lr.ph:                                           ; preds = %4
  %10 = getelementptr inbounds i8, ptr %3, i64 16
  %11 = getelementptr inbounds i8, ptr %3, i64 24
  br i1 %1, label %.lr.ph.split.us, label %.lr.ph.split

.lr.ph.split.us:                                  ; preds = %.lr.ph
  br i1 %2, label %.lr.ph.split.us.split.us, label %.lr.ph.split.us.split

.lr.ph.split.us.split.us:                         ; preds = %.lr.ph.split.us, %30
  %12 = phi ptr [ %34, %30 ], [ %8, %.lr.ph.split.us ]
  %.03543.us.us = phi ptr [ %23, %30 ], [ %0, %.lr.ph.split.us ]
  %13 = getelementptr inbounds i8, ptr %12, i64 184
  %14 = load i32, ptr %13, align 8
  switch i32 %14, label %.loopexit [
    i32 833, label %15
    i32 185, label %15
    i32 184, label %15
    i32 183, label %15
    i32 182, label %15
  ]

15:                                               ; preds = %.lr.ph.split.us.split.us, %.lr.ph.split.us.split.us, %.lr.ph.split.us.split.us, %.lr.ph.split.us.split.us, %.lr.ph.split.us.split.us
  %16 = load ptr, ptr %10, align 8
  %.not.i.i39.not.us.us = icmp eq ptr %16, null
  br i1 %.not.i.i39.not.us.us, label %19, label %_ZNKSt8functionIFbRK11TIntermNodeEEclES2_.exit41.us.us

_ZNKSt8functionIFbRK11TIntermNodeEEclES2_.exit41.us.us: ; preds = %15
  %17 = load ptr, ptr %11, align 8
  %18 = tail call noundef zeroext i1 %17(ptr noundef nonnull align 8 dereferenceable(16) %3, ptr noundef nonnull align 8 dereferenceable(32) %.03543.us.us) #17
  br i1 %18, label %19, label %.loopexit

19:                                               ; preds = %_ZNKSt8functionIFbRK11TIntermNodeEEclES2_.exit41.us.us, %15
  %20 = load ptr, ptr %12, align 8
  %21 = getelementptr inbounds i8, ptr %20, i64 400
  %22 = load ptr, ptr %21, align 8
  %23 = tail call noundef ptr %22(ptr noundef nonnull align 8 dereferenceable(208) %12) #17
  %24 = getelementptr inbounds i8, ptr %23, i64 32
  %25 = load ptr, ptr %24, align 8
  %26 = getelementptr inbounds i8, ptr %25, i64 56
  %27 = load ptr, ptr %26, align 8
  %28 = tail call noundef i32 %27(ptr noundef nonnull align 8 dereferenceable(152) %24) #17
  %29 = icmp eq i32 %28, 18
  br i1 %29, label %.loopexit, label %30

30:                                               ; preds = %19
  %31 = load ptr, ptr %23, align 8
  %32 = getelementptr inbounds i8, ptr %31, i64 160
  %33 = load ptr, ptr %32, align 8
  %34 = tail call noundef ptr %33(ptr noundef nonnull align 8 dereferenceable(32) %23) #17
  %35 = icmp eq ptr %34, null
  br i1 %35, label %._crit_edge, label %.lr.ph.split.us.split.us, !llvm.loop !40

.lr.ph.split.us.split:                            ; preds = %.lr.ph.split.us, %43
  %36 = phi ptr [ %51, %43 ], [ %8, %.lr.ph.split.us ]
  %.03543.us = phi ptr [ %47, %43 ], [ %0, %.lr.ph.split.us ]
  %37 = getelementptr inbounds i8, ptr %36, i64 184
  %38 = load i32, ptr %37, align 8
  switch i32 %38, label %.loopexit [
    i32 833, label %39
    i32 185, label %39
    i32 184, label %39
    i32 183, label %39
    i32 182, label %39
  ]

39:                                               ; preds = %.lr.ph.split.us.split, %.lr.ph.split.us.split, %.lr.ph.split.us.split, %.lr.ph.split.us.split, %.lr.ph.split.us.split
  %40 = load ptr, ptr %10, align 8
  %.not.i.i39.not.us = icmp eq ptr %40, null
  br i1 %.not.i.i39.not.us, label %43, label %_ZNKSt8functionIFbRK11TIntermNodeEEclES2_.exit41.us

_ZNKSt8functionIFbRK11TIntermNodeEEclES2_.exit41.us: ; preds = %39
  %41 = load ptr, ptr %11, align 8
  %42 = tail call noundef zeroext i1 %41(ptr noundef nonnull align 8 dereferenceable(16) %3, ptr noundef nonnull align 8 dereferenceable(32) %.03543.us) #17
  br i1 %42, label %43, label %.loopexit

43:                                               ; preds = %_ZNKSt8functionIFbRK11TIntermNodeEEclES2_.exit41.us, %39
  %44 = load ptr, ptr %36, align 8
  %45 = getelementptr inbounds i8, ptr %44, i64 400
  %46 = load ptr, ptr %45, align 8
  %47 = tail call noundef ptr %46(ptr noundef nonnull align 8 dereferenceable(208) %36) #17
  %48 = load ptr, ptr %47, align 8
  %49 = getelementptr inbounds i8, ptr %48, i64 160
  %50 = load ptr, ptr %49, align 8
  %51 = tail call noundef ptr %50(ptr noundef nonnull align 8 dereferenceable(32) %47) #17
  %52 = icmp eq ptr %51, null
  br i1 %52, label %._crit_edge, label %.lr.ph.split.us.split, !llvm.loop !40

._crit_edge:                                      ; preds = %118, %43, %30, %4
  %.035.lcssa = phi ptr [ %0, %4 ], [ %23, %30 ], [ %47, %43 ], [ %110, %118 ]
  %53 = getelementptr inbounds i8, ptr %3, i64 16
  %54 = load ptr, ptr %53, align 8
  %.not.i.i.not = icmp eq ptr %54, null
  br i1 %.not.i.i.not, label %.loopexit, label %_ZNKSt8functionIFbRK11TIntermNodeEEclES2_.exit

_ZNKSt8functionIFbRK11TIntermNodeEEclES2_.exit:   ; preds = %._crit_edge
  %55 = getelementptr inbounds i8, ptr %3, i64 24
  %56 = load ptr, ptr %55, align 8
  %57 = tail call noundef zeroext i1 %56(ptr noundef nonnull align 8 dereferenceable(16) %3, ptr noundef nonnull align 8 dereferenceable(32) %.035.lcssa) #17
  br label %.loopexit

.lr.ph.split:                                     ; preds = %.lr.ph, %118
  %58 = phi ptr [ %122, %118 ], [ %8, %.lr.ph ]
  %.03543 = phi ptr [ %110, %118 ], [ %0, %.lr.ph ]
  %59 = getelementptr inbounds i8, ptr %58, i64 184
  %60 = load i32, ptr %59, align 8
  %.off = add i32 %60, -182
  %switch = icmp ult i32 %.off, 3
  br i1 %switch, label %61, label %.loopexit

61:                                               ; preds = %.lr.ph.split
  %62 = and i32 %60, 190
  %or.cond11 = icmp eq i32 %62, 182
  br i1 %or.cond11, label %63, label %102

63:                                               ; preds = %61
  %64 = load ptr, ptr %58, align 8
  %65 = getelementptr inbounds i8, ptr %64, i64 400
  %66 = load ptr, ptr %65, align 8
  %67 = tail call noundef ptr %66(ptr noundef nonnull align 8 dereferenceable(208) %58) #17
  %68 = load ptr, ptr %67, align 8
  %69 = getelementptr inbounds i8, ptr %68, i64 240
  %70 = load ptr, ptr %69, align 8
  %71 = tail call noundef nonnull align 8 dereferenceable(152) ptr %70(ptr noundef nonnull align 8 dereferenceable(184) %67) #17
  %72 = load ptr, ptr %71, align 8
  %73 = getelementptr inbounds i8, ptr %72, i64 216
  %74 = load ptr, ptr %73, align 8
  %75 = tail call noundef zeroext i1 %74(ptr noundef nonnull align 8 dereferenceable(152) %71) #17
  br i1 %75, label %89, label %76

76:                                               ; preds = %63
  %77 = load ptr, ptr %58, align 8
  %78 = getelementptr inbounds i8, ptr %77, i64 400
  %79 = load ptr, ptr %78, align 8
  %80 = tail call noundef ptr %79(ptr noundef nonnull align 8 dereferenceable(208) %58) #17
  %81 = load ptr, ptr %80, align 8
  %82 = getelementptr inbounds i8, ptr %81, i64 240
  %83 = load ptr, ptr %82, align 8
  %84 = tail call noundef nonnull align 8 dereferenceable(152) ptr %83(ptr noundef nonnull align 8 dereferenceable(184) %80) #17
  %85 = load ptr, ptr %84, align 8
  %86 = getelementptr inbounds i8, ptr %85, i64 192
  %87 = load ptr, ptr %86, align 8
  %88 = tail call noundef zeroext i1 %87(ptr noundef nonnull align 8 dereferenceable(152) %84) #17
  br i1 %88, label %89, label %102

89:                                               ; preds = %76, %63
  %90 = load ptr, ptr %58, align 8
  %91 = getelementptr inbounds i8, ptr %90, i64 400
  %92 = load ptr, ptr %91, align 8
  %93 = tail call noundef ptr %92(ptr noundef nonnull align 8 dereferenceable(208) %58) #17
  %94 = load ptr, ptr %93, align 8
  %95 = getelementptr inbounds i8, ptr %94, i64 240
  %96 = load ptr, ptr %95, align 8
  %97 = tail call noundef nonnull align 8 dereferenceable(152) ptr %96(ptr noundef nonnull align 8 dereferenceable(184) %93) #17
  %98 = load ptr, ptr %97, align 8
  %99 = getelementptr inbounds i8, ptr %98, i64 232
  %100 = load ptr, ptr %99, align 8
  %101 = tail call noundef zeroext i1 %100(ptr noundef nonnull align 8 dereferenceable(152) %97) #17
  br i1 %101, label %102, label %.loopexit

102:                                              ; preds = %76, %89, %61
  %103 = load ptr, ptr %10, align 8
  %.not.i.i39.not = icmp eq ptr %103, null
  br i1 %.not.i.i39.not, label %106, label %_ZNKSt8functionIFbRK11TIntermNodeEEclES2_.exit41

_ZNKSt8functionIFbRK11TIntermNodeEEclES2_.exit41: ; preds = %102
  %104 = load ptr, ptr %11, align 8
  %105 = tail call noundef zeroext i1 %104(ptr noundef nonnull align 8 dereferenceable(16) %3, ptr noundef nonnull align 8 dereferenceable(32) %.03543) #17
  br i1 %105, label %106, label %.loopexit

106:                                              ; preds = %_ZNKSt8functionIFbRK11TIntermNodeEEclES2_.exit41, %102
  %107 = load ptr, ptr %58, align 8
  %108 = getelementptr inbounds i8, ptr %107, i64 400
  %109 = load ptr, ptr %108, align 8
  %110 = tail call noundef ptr %109(ptr noundef nonnull align 8 dereferenceable(208) %58) #17
  br i1 %2, label %111, label %118

111:                                              ; preds = %106
  %112 = getelementptr inbounds i8, ptr %110, i64 32
  %113 = load ptr, ptr %112, align 8
  %114 = getelementptr inbounds i8, ptr %113, i64 56
  %115 = load ptr, ptr %114, align 8
  %116 = tail call noundef i32 %115(ptr noundef nonnull align 8 dereferenceable(152) %112) #17
  %117 = icmp eq i32 %116, 18
  br i1 %117, label %.loopexit, label %118

118:                                              ; preds = %106, %111
  %119 = load ptr, ptr %110, align 8
  %120 = getelementptr inbounds i8, ptr %119, i64 160
  %121 = load ptr, ptr %120, align 8
  %122 = tail call noundef ptr %121(ptr noundef nonnull align 8 dereferenceable(32) %110) #17
  %123 = icmp eq ptr %122, null
  br i1 %123, label %._crit_edge, label %.lr.ph.split, !llvm.loop !40

.loopexit:                                        ; preds = %.lr.ph.split, %89, %_ZNKSt8functionIFbRK11TIntermNodeEEclES2_.exit41, %111, %.lr.ph.split.us.split, %_ZNKSt8functionIFbRK11TIntermNodeEEclES2_.exit41.us, %.lr.ph.split.us.split.us, %_ZNKSt8functionIFbRK11TIntermNodeEEclES2_.exit41.us.us, %19, %._crit_edge, %_ZNKSt8functionIFbRK11TIntermNodeEEclES2_.exit
  %.0 = phi ptr [ %.035.lcssa, %_ZNKSt8functionIFbRK11TIntermNodeEEclES2_.exit ], [ %.035.lcssa, %._crit_edge ], [ %23, %19 ], [ %.03543.us.us, %_ZNKSt8functionIFbRK11TIntermNodeEEclES2_.exit41.us.us ], [ null, %.lr.ph.split.us.split.us ], [ %.03543.us, %_ZNKSt8functionIFbRK11TIntermNodeEEclES2_.exit41.us ], [ null, %.lr.ph.split.us.split ], [ %110, %111 ], [ %.03543, %_ZNKSt8functionIFbRK11TIntermNodeEEclES2_.exit41 ], [ null, %89 ], [ null, %.lr.ph.split ]
  ret ptr %.0
}